target datalayout = "e-m:e-p270:32:32-p271:32:32-p272:64:64-i64:64-i128:128-f80:128-n8:16:32:64-S128"
target triple = "x86_64-pc-linux-gnu"

%struct.merge_in_file_s = type { ptr, ptr, %struct.wtap_rec, i32, i32, i64, ptr, i32, i32 }
%struct.wtap_rec = type { i32, i32, i32, %struct.nstime_t, i32, %struct.nstime_t, i8, %union.anon, ptr, i8, %struct.Buffer, %struct.Buffer }
%struct.nstime_t = type { i64, i32 }
%union.anon = type { %struct.wtap_packet_header }
%struct.wtap_packet_header = type { i32, i32, i32, i32, %union.wtap_pseudo_header }
%union.wtap_pseudo_header = type { %struct.erf_mc_phdr }
%struct.erf_mc_phdr = type { %struct.erf_phdr, [16 x %struct.erf_ehdr], %union.anon.1 }
%struct.erf_phdr = type { i64, i8, i8, i16, i16, i16 }
%struct.erf_ehdr = type { i64 }
%union.anon.1 = type { i32 }
%struct.Buffer = type { ptr, i64, i64, i64 }
%struct._GArray = type { ptr, i32 }
%struct.wtapng_iface_descriptions_s = type { ptr }
%struct.wtap = type { ptr, ptr, i8, i32, i32, ptr, ptr, ptr, i32, ptr, ptr, ptr, ptr, ptr, ptr, ptr, ptr, ptr, ptr, i32, i32, ptr, ptr, ptr, ptr }
%struct.wtapng_if_descr_mandatory_s = type { i32, i64, i32, i32, i8, ptr }

; Function Attrs: null_pointer_is_valid sspstrong uwtable
define internal zeroext i1 @add_idb_to_merged_file(ptr noundef %0, ptr noundef %1, ptr noundef %2, ptr noundef %3, ptr noundef %4) #0 {
  %6 = alloca i1, align 1
  %7 = alloca ptr, align 8
  %8 = alloca ptr, align 8
  %9 = alloca ptr, align 8
  %10 = alloca ptr, align 8
  %11 = alloca ptr, align 8
  %12 = alloca ptr, align 8
  %13 = alloca ptr, align 8
  %14 = alloca i32, align 4
  store ptr %0, ptr %7, align 8
  store ptr %1, ptr %8, align 8
  store ptr %2, ptr %9, align 8
  store ptr %3, ptr %10, align 8
  store ptr %4, ptr %11, align 8
  call void @llvm.lifetime.start.p0(i64 8, ptr %12) #14
  call void @llvm.lifetime.start.p0(i64 8, ptr %13) #14
  br label %15

15:                                               ; preds = %5
  br label %16

16:                                               ; preds = %15
  br label %17

17:                                               ; preds = %16
  br label %18

18:                                               ; preds = %17
  br label %19

19:                                               ; preds = %18
  br label %20

20:                                               ; preds = %19
  br label %21

21:                                               ; preds = %20
  br label %22

22:                                               ; preds = %21
  br label %23

23:                                               ; preds = %22
  %24 = load ptr, ptr %8, align 8
  %25 = call ptr @wtap_block_make_copy(ptr noundef %24)
  store ptr %25, ptr %12, align 8
  %26 = load ptr, ptr %12, align 8
  %27 = call ptr @wtap_block_get_mandatory_data(ptr noundef %26)
  store ptr %27, ptr %13, align 8
  %28 = load ptr, ptr %13, align 8
  %29 = getelementptr inbounds nuw %struct.wtapng_if_descr_mandatory_s, ptr %28, i32 0, i32 4
  store i8 0, ptr %29, align 8
  %30 = load ptr, ptr %13, align 8
  %31 = getelementptr inbounds nuw %struct.wtapng_if_descr_mandatory_s, ptr %30, i32 0, i32 5
  store ptr null, ptr %31, align 8
  %32 = load ptr, ptr %9, align 8
  %33 = icmp ne ptr %32, null
  br i1 %33, label %34, label %48

34:                                               ; preds = %23
  %35 = load ptr, ptr %9, align 8
  %36 = call i32 @wtap_dump_file_type_subtype(ptr noundef %35)
  %37 = call i32 @wtap_file_type_subtype_supports_block(i32 noundef %36, i32 noundef 1)
  %38 = icmp ne i32 %37, 0
  br i1 %38, label %39, label %47

39:                                               ; preds = %34
  %40 = load ptr, ptr %9, align 8
  %41 = load ptr, ptr %8, align 8
  %42 = load ptr, ptr %10, align 8
  %43 = load ptr, ptr %11, align 8
  %44 = call zeroext i1 @wtap_dump_add_idb(ptr noundef %40, ptr noundef %41, ptr noundef %42, ptr noundef %43)
  br i1 %44, label %46, label %45

45:                                               ; preds = %39
  store i1 false, ptr %6, align 1
  store i32 1, ptr %14, align 4
  br label %53

46:                                               ; preds = %39
  br label %47

47:                                               ; preds = %46, %34
  br label %48

48:                                               ; preds = %47, %23
  %49 = load ptr, ptr %7, align 8
  %50 = getelementptr inbounds nuw %struct.wtapng_iface_descriptions_s, ptr %49, i32 0, i32 0
  %51 = load ptr, ptr %50, align 8
  %52 = call ptr @g_array_append_vals(ptr noundef %51, ptr noundef %12, i32 noundef 1)
  store i1 true, ptr %6, align 1
  store i32 1, ptr %14, align 4
  br label %53

53:                                               ; preds = %48, %45
  call void @llvm.lifetime.end.p0(i64 8, ptr %13) #14
  call void @llvm.lifetime.end.p0(i64 8, ptr %12) #14
  %54 = load i1, ptr %6, align 1
  ret i1 %54
}

; Function Attrs: null_pointer_is_valid sspstrong uwtable
define internal void @add_idb_index_map(ptr noundef %0, i32 noundef %1, i32 noundef %2) #0 {
  %4 = alloca ptr, align 8
  %5 = alloca i32, align 4
  %6 = alloca i32, align 4
  store ptr %0, ptr %4, align 8
  store i32 %1, ptr %5, align 4
  store i32 %2, ptr %6, align 4
  br label %7

7:                                                ; preds = %3
  br label %8

8:                                                ; preds = %7
  br label %9

9:                                                ; preds = %8
  br label %10

10:                                               ; preds = %9
  br label %11

11:                                               ; preds = %10
  br label %12

12:                                               ; preds = %11
  %13 = load ptr, ptr %4, align 8
  %14 = getelementptr inbounds nuw %struct.merge_in_file_s, ptr %13, i32 0, i32 6
  %15 = load ptr, ptr %14, align 8
  %16 = call ptr @g_array_append_vals(ptr noundef %15, ptr noundef %6, i32 noundef 1)
  ret void
}

; Function Attrs: null_pointer_is_valid sspstrong uwtable
define internal zeroext i1 @find_duplicate_idb(ptr noundef %0, ptr noundef %1, ptr noundef %2) #0 {
  %4 = alloca i1, align 1
  %5 = alloca ptr, align 8
  %6 = alloca ptr, align 8
  %7 = alloca ptr, align 8
  %8 = alloca ptr, align 8
  %9 = alloca i32, align 4
  %10 = alloca i32, align 4
  store ptr %0, ptr %5, align 8
  store ptr %1, ptr %6, align 8
  store ptr %2, ptr %7, align 8
  call void @llvm.lifetime.start.p0(i64 8, ptr %8) #14
  call void @llvm.lifetime.start.p0(i64 4, ptr %9) #14
  br label %11

11:                                               ; preds = %3
  br label %12

12:                                               ; preds = %11
  br label %13

13:                                               ; preds = %12
  br label %14

14:                                               ; preds = %13
  br label %15

15:                                               ; preds = %14
  br label %16

16:                                               ; preds = %15
  br label %17

17:                                               ; preds = %16
  br label %18

18:                                               ; preds = %17
  br label %19

19:                                               ; preds = %18
  br label %20

20:                                               ; preds = %19
  br label %21

21:                                               ; preds = %20
  br label %22

22:                                               ; preds = %21
  store i32 0, ptr %9, align 4
  br label %23

23:                                               ; preds = %48, %22
  %24 = load i32, ptr %9, align 4
  %25 = load ptr, ptr %6, align 8
  %26 = getelementptr inbounds nuw %struct.wtapng_iface_descriptions_s, ptr %25, i32 0, i32 0
  %27 = load ptr, ptr %26, align 8
  %28 = getelementptr inbounds nuw %struct._GArray, ptr %27, i32 0, i32 1
  %29 = load i32, ptr %28, align 8
  %30 = icmp ult i32 %24, %29
  br i1 %30, label %31, label %51

31:                                               ; preds = %23
  %32 = load ptr, ptr %6, align 8
  %33 = getelementptr inbounds nuw %struct.wtapng_iface_descriptions_s, ptr %32, i32 0, i32 0
  %34 = load ptr, ptr %33, align 8
  %35 = getelementptr inbounds nuw %struct._GArray, ptr %34, i32 0, i32 0
  %36 = load ptr, ptr %35, align 8
  %37 = load i32, ptr %9, align 4
  %38 = zext i32 %37 to i64
  %39 = getelementptr ptr, ptr %36, i64 %38
  %40 = load ptr, ptr %39, align 8
  store ptr %40, ptr %8, align 8
  %41 = load ptr, ptr %5, align 8
  %42 = load ptr, ptr %8, align 8
  %43 = call zeroext i1 @is_duplicate_idb(ptr noundef %41, ptr noundef %42)
  br i1 %43, label %44, label %47

44:                                               ; preds = %31
  %45 = load i32, ptr %9, align 4
  %46 = load ptr, ptr %7, align 8
  store i32 %45, ptr %46, align 4
  store i1 true, ptr %4, align 1
  store i32 1, ptr %10, align 4
  br label %52

47:                                               ; preds = %31
  br label %48

48:                                               ; preds = %47
  %49 = load i32, ptr %9, align 4
  %50 = add i32 %49, 1
  store i32 %50, ptr %9, align 4
  br label %23, !llvm.loop !30

51:                                               ; preds = %23
  store i1 false, ptr %4, align 1
  store i32 1, ptr %10, align 4
  br label %52

52:                                               ; preds = %51, %44
  call void @llvm.lifetime.end.p0(i64 4, ptr %9) #14
  call void @llvm.lifetime.end.p0(i64 8, ptr %8) #14
  %53 = load i1, ptr %4, align 1
  ret i1 %53
}

; Function Attrs: null_pointer_is_valid sspstrong uwtable
define internal zeroext i1 @process_new_idbs(ptr noundef %0, ptr noundef %1, i32 noundef %2, i32 noundef %3, ptr noundef %4, ptr noundef %5, ptr noundef %6) #0 {
  %8 = alloca i1, align 1
  %9 = alloca ptr, align 8
  %10 = alloca ptr, align 8
  %11 = alloca i32, align 4
  %12 = alloca i32, align 4
  %13 = alloca ptr, align 8
  %14 = alloca ptr, align 8
  %15 = alloca ptr, align 8
  %16 = alloca ptr, align 8
  %17 = alloca i32, align 4
  %18 = alloca i32, align 4
  %19 = alloca i32, align 4
  %20 = alloca i32, align 4
  store ptr %0, ptr %9, align 8
  store ptr %1, ptr %10, align 8
  store i32 %2, ptr %11, align 4
  store i32 %3, ptr %12, align 4
  store ptr %4, ptr %13, align 8
  store ptr %5, ptr %14, align 8
  store ptr %6, ptr %15, align 8
  call void @llvm.lifetime.start.p0(i64 8, ptr %16) #14
  call void @llvm.lifetime.start.p0(i64 4, ptr %17) #14
  call void @llvm.lifetime.start.p0(i64 4, ptr %18) #14
  call void @llvm.lifetime.start.p0(i64 4, ptr %19) #14
  store i32 0, ptr %19, align 4
  br label %21

21:                                               ; preds = %95, %7
  %22 = load i32, ptr %19, align 4
  %23 = load i32, ptr %11, align 4
  %24 = icmp ult i32 %22, %23
  br i1 %24, label %25, label %98

25:                                               ; preds = %21
  %26 = load ptr, ptr %10, align 8
  %27 = load i32, ptr %19, align 4
  %28 = zext i32 %27 to i64
  %29 = getelementptr %struct.merge_in_file_s, ptr %26, i64 %28
  %30 = getelementptr inbounds nuw %struct.merge_in_file_s, ptr %29, i32 0, i32 1
  %31 = load ptr, ptr %30, align 8
  %32 = getelementptr inbounds nuw %struct.wtap, ptr %31, i32 0, i32 8
  %33 = load i32, ptr %32, align 8
  store i32 %33, ptr %17, align 4
  br label %34

34:                                               ; preds = %85, %25
  %35 = load ptr, ptr %10, align 8
  %36 = load i32, ptr %19, align 4
  %37 = zext i32 %36 to i64
  %38 = getelementptr %struct.merge_in_file_s, ptr %35, i64 %37
  %39 = getelementptr inbounds nuw %struct.merge_in_file_s, ptr %38, i32 0, i32 1
  %40 = load ptr, ptr %39, align 8
  %41 = call ptr @wtap_get_next_interface_description(ptr noundef %40)
  store ptr %41, ptr %16, align 8
  %42 = icmp ne ptr %41, null
  br i1 %42, label %43, label %94

43:                                               ; preds = %34
  %44 = load i32, ptr %12, align 4
  %45 = icmp eq i32 %44, 2
  br i1 %45, label %46, label %60

46:                                               ; preds = %43
  %47 = load ptr, ptr %16, align 8
  %48 = load ptr, ptr %13, align 8
  %49 = call zeroext i1 @find_duplicate_idb(ptr noundef %47, ptr noundef %48, ptr noundef %18)
  br i1 %49, label %50, label %60

50:                                               ; preds = %46
  br label %51

51:                                               ; preds = %50
  br label %52

52:                                               ; preds = %51
  br label %53

53:                                               ; preds = %52
  %54 = load ptr, ptr %10, align 8
  %55 = load i32, ptr %19, align 4
  %56 = zext i32 %55 to i64
  %57 = getelementptr %struct.merge_in_file_s, ptr %54, i64 %56
  %58 = load i32, ptr %17, align 4
  %59 = load i32, ptr %18, align 4
  call void @add_idb_index_map(ptr noundef %57, i32 noundef %58, i32 noundef %59)
  br label %85

60:                                               ; preds = %46, %43
  br label %61

61:                                               ; preds = %60
  br label %62

62:                                               ; preds = %61
  br label %63

63:                                               ; preds = %62
  %64 = load ptr, ptr %13, align 8
  %65 = load ptr, ptr %16, align 8
  %66 = load ptr, ptr %9, align 8
  %67 = load ptr, ptr %14, align 8
  %68 = load ptr, ptr %15, align 8
  %69 = call zeroext i1 @add_idb_to_merged_file(ptr noundef %64, ptr noundef %65, ptr noundef %66, ptr noundef %67, ptr noundef %68)
  br i1 %69, label %70, label %83

70:                                               ; preds = %63
  %71 = load ptr, ptr %13, align 8
  %72 = getelementptr inbounds nuw %struct.wtapng_iface_descriptions_s, ptr %71, i32 0, i32 0
  %73 = load ptr, ptr %72, align 8
  %74 = getelementptr inbounds nuw %struct._GArray, ptr %73, i32 0, i32 1
  %75 = load i32, ptr %74, align 8
  %76 = sub i32 %75, 1
  store i32 %76, ptr %18, align 4
  %77 = load ptr, ptr %10, align 8
  %78 = load i32, ptr %19, align 4
  %79 = zext i32 %78 to i64
  %80 = getelementptr %struct.merge_in_file_s, ptr %77, i64 %79
  %81 = load i32, ptr %17, align 4
  %82 = load i32, ptr %18, align 4
  call void @add_idb_index_map(ptr noundef %80, i32 noundef %81, i32 noundef %82)
  br label %84

83:                                               ; preds = %63
  store i1 false, ptr %8, align 1
  store i32 1, ptr %20, align 4
  br label %99

84:                                               ; preds = %70
  br label %85

85:                                               ; preds = %84, %53
  %86 = load ptr, ptr %10, align 8
  %87 = load i32, ptr %19, align 4
  %88 = zext i32 %87 to i64
  %89 = getelementptr %struct.merge_in_file_s, ptr %86, i64 %88
  %90 = getelementptr inbounds nuw %struct.merge_in_file_s, ptr %89, i32 0, i32 1
  %91 = load ptr, ptr %90, align 8
  %92 = getelementptr inbounds nuw %struct.wtap, ptr %91, i32 0, i32 8
  %93 = load i32, ptr %92, align 8
  store i32 %93, ptr %17, align 4
  br label %34, !llvm.loop !33

94:                                               ; preds = %34
  br label %95

95:                                               ; preds = %94
  %96 = load i32, ptr %19, align 4
  %97 = add i32 %96, 1
  store i32 %97, ptr %19, align 4
  br label %21, !llvm.loop !34

98:                                               ; preds = %21
  store i1 true, ptr %8, align 1
  store i32 1, ptr %20, align 4
  br label %99

99:                                               ; preds = %98, %83
  call void @llvm.lifetime.end.p0(i64 4, ptr %19) #14
  call void @llvm.lifetime.end.p0(i64 4, ptr %18) #14
  call void @llvm.lifetime.end.p0(i64 4, ptr %17) #14
  call void @llvm.lifetime.end.p0(i64 8, ptr %16) #14
  %100 = load i1, ptr %8, align 1
  ret i1 %100
}