; Function Attrs: null_pointer_is_valid sspstrong uwtable
define internal fastcc noundef zeroext i1 @process_new_idbs(ptr noundef nonnull %0, ptr noundef readonly captures(none) %1, i32 noundef range(i32 1, 0) %2, i32 noundef %3, ptr noundef readonly captures(none) %4, ptr noundef %5, ptr noundef %6) unnamed_addr #0 {
  %8 = alloca i32, align 4
  %9 = alloca ptr, align 8
  %10 = alloca i32, align 4
  %11 = icmp eq i32 %3, 2
  %wide.trip.count48 = zext i32 %2 to i64
  br i1 %11, label %.split.us, label %.split

.split.us:                                        ; preds = %7, %._crit_edge.split.us.us
  %indvars.iv45 = phi i64 [ %indvars.iv.next46, %._crit_edge.split.us.us ], [ 0, %7 ]
  %12 = getelementptr %struct.merge_in_file_s, ptr %1, i64 %indvars.iv45
  %13 = getelementptr inbounds nuw i8, ptr %12, i64 8
  %.pn34.us = load ptr, ptr %13, align 8
  %14 = call ptr @wtap_get_next_interface_description(ptr noundef %.pn34.us)
  %.not35.us = icmp eq ptr %14, null
  br i1 %.not35.us, label %._crit_edge.split.us.us, label %.lr.ph.us

._crit_edge.split.us.us:                          ; preds = %51, %.split.us
  %indvars.iv.next46 = add nuw nsw i64 %indvars.iv45, 1
  %exitcond49.not = icmp eq i64 %indvars.iv.next46, %wide.trip.count48
  br i1 %exitcond49.not, label %.loopexit, label %.split.us, !llvm.loop !31

.lr.ph.us:                                        ; preds = %.split.us
  %15 = getelementptr i8, ptr %12, i64 344
  br label %16

16:                                               ; preds = %51, %.lr.ph.us
  %17 = phi ptr [ %14, %.lr.ph.us ], [ %52, %51 ]
  %18 = load ptr, ptr %4, align 8
  %19 = getelementptr inbounds nuw i8, ptr %18, i64 8
  %20 = load i32, ptr %19, align 8
  %.not.i.us.us = icmp eq i32 %20, 0
  br i1 %.not.i.us.us, label %find_duplicate_idb.exit.thread.us.us, label %.lr.ph.i.us.us

.lr.ph.i.us.us:                                   ; preds = %16, %26
  %indvars.iv.i.us.us = phi i64 [ %indvars.iv.next.i.us.us, %26 ], [ 0, %16 ]
  %21 = phi ptr [ %27, %26 ], [ %18, %16 ]
  %22 = load ptr, ptr %21, align 8
  %23 = getelementptr ptr, ptr %22, i64 %indvars.iv.i.us.us
  %24 = load ptr, ptr %23, align 8
  %25 = call fastcc zeroext i1 @is_duplicate_idb(ptr noundef nonnull %17, ptr noundef %24)
  br i1 %25, label %32, label %26

26:                                               ; preds = %.lr.ph.i.us.us
  %indvars.iv.next.i.us.us = add nuw nsw i64 %indvars.iv.i.us.us, 1
  %27 = load ptr, ptr %4, align 8
  %28 = getelementptr inbounds nuw i8, ptr %27, i64 8
  %29 = load i32, ptr %28, align 8
  %30 = zext i32 %29 to i64
  %31 = icmp samesign ult i64 %indvars.iv.next.i.us.us, %30
  br i1 %31, label %.lr.ph.i.us.us, label %find_duplicate_idb.exit.thread.us.us, !llvm.loop !18

32:                                               ; preds = %.lr.ph.i.us.us
  %33 = trunc nuw i64 %indvars.iv.i.us.us to i32
  %.val27.us.us = load ptr, ptr %15, align 8
  call void @llvm.lifetime.start.p0(i64 4, ptr nonnull %10)
  store i32 %33, ptr %10, align 4
  %34 = call ptr @g_array_append_vals(ptr noundef %.val27.us.us, ptr noundef nonnull %10, i32 noundef 1)
  call void @llvm.lifetime.end.p0(i64 4, ptr nonnull %10)
  br label %51

find_duplicate_idb.exit.thread.us.us:             ; preds = %26, %16
  call void @llvm.lifetime.start.p0(i64 8, ptr nonnull %9) #12
  %35 = call ptr @wtap_block_make_copy(ptr noundef nonnull %17)
  store ptr %35, ptr %9, align 8
  %36 = call ptr @wtap_block_get_mandatory_data(ptr noundef %35)
  %37 = getelementptr inbounds nuw i8, ptr %36, i64 24
  store i8 0, ptr %37, align 8
  %38 = getelementptr inbounds nuw i8, ptr %36, i64 32
  store ptr null, ptr %38, align 8
  %39 = call i32 @wtap_dump_file_type_subtype(ptr noundef nonnull %0)
  %40 = call i32 @wtap_file_type_subtype_supports_block(i32 noundef %39, i32 noundef 1)
  %.not12.i.us.us = icmp eq i32 %40, 0
  br i1 %.not12.i.us.us, label %43, label %41

41:                                               ; preds = %find_duplicate_idb.exit.thread.us.us
  %42 = call zeroext i1 @wtap_dump_add_idb(ptr noundef nonnull %0, ptr noundef nonnull %17, ptr noundef %5, ptr noundef %6)
  br i1 %42, label %43, label %add_idb_to_merged_file.exit

43:                                               ; preds = %41, %find_duplicate_idb.exit.thread.us.us
  %44 = load ptr, ptr %4, align 8
  %45 = call ptr @g_array_append_vals(ptr noundef %44, ptr noundef nonnull %9, i32 noundef 1)
  call void @llvm.lifetime.end.p0(i64 8, ptr nonnull %9) #12
  %46 = load ptr, ptr %4, align 8
  %47 = getelementptr inbounds nuw i8, ptr %46, i64 8
  %48 = load i32, ptr %47, align 8
  %49 = add i32 %48, -1
  %.val.us.us = load ptr, ptr %15, align 8
  call void @llvm.lifetime.start.p0(i64 4, ptr nonnull %8)
  store i32 %49, ptr %8, align 4
  %50 = call ptr @g_array_append_vals(ptr noundef %.val.us.us, ptr noundef nonnull %8, i32 noundef 1)
  call void @llvm.lifetime.end.p0(i64 4, ptr nonnull %8)
  br label %51

51:                                               ; preds = %43, %32
  %.pn.us.us = load ptr, ptr %13, align 8
  %52 = call ptr @wtap_get_next_interface_description(ptr noundef %.pn.us.us)
  %.not.us.us = icmp eq ptr %52, null
  br i1 %.not.us.us, label %._crit_edge.split.us.us, label %16, !llvm.loop !32

.split:                                           ; preds = %7, %._crit_edge.split
  %indvars.iv = phi i64 [ %indvars.iv.next, %._crit_edge.split ], [ 0, %7 ]
  %53 = getelementptr %struct.merge_in_file_s, ptr %1, i64 %indvars.iv
  %54 = getelementptr inbounds nuw i8, ptr %53, i64 8
  %.pn34 = load ptr, ptr %54, align 8
  %55 = call ptr @wtap_get_next_interface_description(ptr noundef %.pn34)
  %.not35 = icmp eq ptr %55, null
  br i1 %.not35, label %._crit_edge.split, label %.lr.ph

.lr.ph:                                           ; preds = %.split
  %56 = getelementptr i8, ptr %53, i64 344
  br label %find_duplicate_idb.exit.thread

find_duplicate_idb.exit.thread:                   ; preds = %.lr.ph, %66
  %57 = phi ptr [ %55, %.lr.ph ], [ %74, %66 ]
  call void @llvm.lifetime.start.p0(i64 8, ptr nonnull %9) #12
  %58 = call ptr @wtap_block_make_copy(ptr noundef nonnull %57)
  store ptr %58, ptr %9, align 8
  %59 = call ptr @wtap_block_get_mandatory_data(ptr noundef %58)
  %60 = getelementptr inbounds nuw i8, ptr %59, i64 24
  store i8 0, ptr %60, align 8
  %61 = getelementptr inbounds nuw i8, ptr %59, i64 32
  store ptr null, ptr %61, align 8
  %62 = call i32 @wtap_dump_file_type_subtype(ptr noundef nonnull %0)
  %63 = call i32 @wtap_file_type_subtype_supports_block(i32 noundef %62, i32 noundef 1)
  %.not12.i = icmp eq i32 %63, 0
  br i1 %.not12.i, label %66, label %64

64:                                               ; preds = %find_duplicate_idb.exit.thread
  %65 = call zeroext i1 @wtap_dump_add_idb(ptr noundef nonnull %0, ptr noundef nonnull %57, ptr noundef %5, ptr noundef %6)
  br i1 %65, label %66, label %add_idb_to_merged_file.exit

add_idb_to_merged_file.exit:                      ; preds = %64, %41
  call void @llvm.lifetime.end.p0(i64 8, ptr nonnull %9) #12
  br label %.loopexit

66:                                               ; preds = %find_duplicate_idb.exit.thread, %64
  %67 = load ptr, ptr %4, align 8
  %68 = call ptr @g_array_append_vals(ptr noundef %67, ptr noundef nonnull %9, i32 noundef 1)
  call void @llvm.lifetime.end.p0(i64 8, ptr nonnull %9) #12
  %69 = load ptr, ptr %4, align 8
  %70 = getelementptr inbounds nuw i8, ptr %69, i64 8
  %71 = load i32, ptr %70, align 8
  %72 = add i32 %71, -1
  %.val = load ptr, ptr %56, align 8
  call void @llvm.lifetime.start.p0(i64 4, ptr nonnull %8)
  store i32 %72, ptr %8, align 4
  %73 = call ptr @g_array_append_vals(ptr noundef %.val, ptr noundef nonnull %8, i32 noundef 1)
  call void @llvm.lifetime.end.p0(i64 4, ptr nonnull %8)
  %.pn = load ptr, ptr %54, align 8
  %74 = call ptr @wtap_get_next_interface_description(ptr noundef %.pn)
  %.not = icmp eq ptr %74, null
  br i1 %.not, label %._crit_edge.split, label %find_duplicate_idb.exit.thread, !llvm.loop !32

._crit_edge.split:                                ; preds = %66, %.split
  %indvars.iv.next = add nuw nsw i64 %indvars.iv, 1
  %exitcond.not = icmp eq i64 %indvars.iv.next, %wide.trip.count48
  br i1 %exitcond.not, label %.loopexit, label %.split, !llvm.loop !31

.loopexit:                                        ; preds = %._crit_edge.split, %._crit_edge.split.us.us, %add_idb_to_merged_file.exit
  %75 = phi i1 [ false, %add_idb_to_merged_file.exit ], [ true, %._crit_edge.split.us.us ], [ true, %._crit_edge.split ]
  ret i1 %75
}